; ModuleID = '42/595.c'
source_filename = "42/595.c"
target datalayout = "e-m:e-p270:32:32-p271:32:32-p272:64:64-i64:64-f80:128-n8:16:32:64-S128"
target triple = "x86_64-pc-linux-gnu"

@.str = private unnamed_addr constant [3 x i8] c"%d\00", align 1
@.str.1 = private unnamed_addr constant [2 x i8] c"\0A\00", align 1
@.str.2 = private unnamed_addr constant [4 x i8] c"%d \00", align 1

; Function Attrs: noinline nounwind uwtable
define dso_local void @main() #0 {
  %1 = alloca [100000 x i32], align 16
  %2 = alloca i32, align 4
  %3 = alloca i32, align 4
  %4 = alloca i32*, align 8
  %5 = alloca i32*, align 8
  %6 = alloca i32, align 4
  %7 = alloca i32, align 4
  %8 = call i32 (i8*, ...) @__isoc99_scanf(i8* getelementptr inbounds ([3 x i8], [3 x i8]* @.str, i64 0, i64 0), i32* %6)
  %9 = getelementptr inbounds [100000 x i32], [100000 x i32]* %1, i64 0, i64 0
  store i32* %9, i32** %4, align 8
  store i32 0, i32* %2, align 4
  br label %10

10:                                               ; preds = %23, %0
  %11 = load i32*, i32** %4, align 8
  %12 = getelementptr inbounds [100000 x i32], [100000 x i32]* %1, i64 0, i64 0
  %13 = load i32, i32* %6, align 4
  %14 = sext i32 %13 to i64
  %15 = getelementptr inbounds i32, i32* %12, i64 %14
  %16 = icmp ult i32* %11, %15
  br i1 %16, label %17, label %26

17:                                               ; preds = %10
  %18 = load i32*, i32** %4, align 8
  %19 = load i32, i32* %2, align 4
  %20 = sext i32 %19 to i64
  %21 = getelementptr inbounds i32, i32* %18, i64 %20
  %22 = call i32 (i8*, ...) @__isoc99_scanf(i8* getelementptr inbounds ([3 x i8], [3 x i8]* @.str, i64 0, i64 0), i32* %21)
  br label %23

23:                                               ; preds = %17
  %24 = load i32*, i32** %4, align 8
  %25 = getelementptr inbounds i32, i32* %24, i32 1
  store i32* %25, i32** %4, align 8
  br label %10

26:                                               ; preds = %10
  %27 = call i32 (i8*, ...) @printf(i8* getelementptr inbounds ([2 x i8], [2 x i8]* @.str.1, i64 0, i64 0))
  %28 = call i32 (i8*, ...) @__isoc99_scanf(i8* getelementptr inbounds ([3 x i8], [3 x i8]* @.str, i64 0, i64 0), i32* %7)
  %29 = getelementptr inbounds [100000 x i32], [100000 x i32]* %1, i64 0, i64 0
  store i32* %29, i32** %4, align 8
  %30 = getelementptr inbounds [100000 x i32], [100000 x i32]* %1, i64 0, i64 0
  store i32* %30, i32** %5, align 8
  br label %31

31:                                               ; preds = %50, %26
  %32 = load i32*, i32** %4, align 8
  %33 = getelementptr inbounds [100000 x i32], [100000 x i32]* %1, i64 0, i64 0
  %34 = load i32, i32* %6, align 4
  %35 = sext i32 %34 to i64
  %36 = getelementptr inbounds i32, i32* %33, i64 %35
  %37 = icmp ult i32* %32, %36
  br i1 %37, label %38, label %53

38:                                               ; preds = %31
  %39 = load i32*, i32** %4, align 8
  %40 = load i32, i32* %39, align 4
  %41 = load i32, i32* %7, align 4
  %42 = icmp ne i32 %40, %41
  br i1 %42, label %43, label %49

43:                                               ; preds = %38
  %44 = load i32*, i32** %4, align 8
  %45 = load i32, i32* %44, align 4
  %46 = load i32*, i32** %5, align 8
  store i32 %45, i32* %46, align 4
  %47 = load i32*, i32** %5, align 8
  %48 = getelementptr inbounds i32, i32* %47, i32 1
  store i32* %48, i32** %5, align 8
  br label %49

49:                                               ; preds = %43, %38
  br label %50

50:                                               ; preds = %49
  %51 = load i32*, i32** %4, align 8
  %52 = getelementptr inbounds i32, i32* %51, i32 1
  store i32* %52, i32** %4, align 8
  br label %31

53:                                               ; preds = %31
  %54 = getelementptr inbounds [100000 x i32], [100000 x i32]* %1, i64 0, i64 0
  store i32* %54, i32** %4, align 8
  br label %55

55:                                               ; preds = %64, %53
  %56 = load i32*, i32** %4, align 8
  %57 = load i32*, i32** %5, align 8
  %58 = getelementptr inbounds i32, i32* %57, i64 -1
  %59 = icmp ult i32* %56, %58
  br i1 %59, label %60, label %67

60:                                               ; preds = %55
  %61 = load i32*, i32** %4, align 8
  %62 = load i32, i32* %61, align 4
  %63 = call i32 (i8*, ...) @printf(i8* getelementptr inbounds ([4 x i8], [4 x i8]* @.str.2, i64 0, i64 0), i32 %62)
  br label %64

64:                                               ; preds = %60
  %65 = load i32*, i32** %4, align 8
  %66 = getelementptr inbounds i32, i32* %65, i32 1
  store i32* %66, i32** %4, align 8
  br label %55

67:                                               ; preds = %55
  %68 = load i32*, i32** %5, align 8
  %69 = getelementptr inbounds i32, i32* %68, i64 -1
  %70 = load i32, i32* %69, align 4
  %71 = call i32 (i8*, ...) @printf(i8* getelementptr inbounds ([3 x i8], [3 x i8]* @.str, i64 0, i64 0), i32 %70)
  %72 = call i32 (i8*, ...) @printf(i8* getelementptr inbounds ([2 x i8], [2 x i8]* @.str.1, i64 0, i64 0))
  ret void
}

declare dso_local i32 @__isoc99_scanf(i8*, ...) #1

declare dso_local i32 @printf(i8*, ...) #1


!llvm.module.flags = !{!0}
!llvm.ident = !{!1}

!0 = !{i32 1, !"wchar_size", i32 4}
!1 = !{!"clang version 10.0.0-4ubuntu1 "}
