; ModuleID = 'source-C-CXX/41/595.c'
source_filename = "source-C-CXX/41/595.c"
target datalayout = "e-m:e-p270:32:32-p271:32:32-p272:64:64-i64:64-f80:128-n8:16:32:64-S128"
target triple = "x86_64-pc-linux-gnu"

@.str = private unnamed_addr constant [3 x i8] c"%d\00", align 1
@.str.2 = private unnamed_addr constant [4 x i8] c"%d \00", align 1

; Function Attrs: nofree nounwind sspstrong uwtable
define dso_local void @main() local_unnamed_addr #0 {
  %1 = alloca [100000 x i32], align 16
  %2 = alloca i32, align 4
  %3 = alloca i32, align 4
  %4 = bitcast [100000 x i32]* %1 to i8*
  call void @llvm.lifetime.start.p0i8(i64 400000, i8* nonnull %4) #4
  %5 = bitcast i32* %2 to i8*
  call void @llvm.lifetime.start.p0i8(i64 4, i8* nonnull %5) #4
  %6 = bitcast i32* %3 to i8*
  call void @llvm.lifetime.start.p0i8(i64 4, i8* nonnull %6) #4
  %7 = call i32 (i8*, ...) @__isoc99_scanf(i8* getelementptr inbounds ([3 x i8], [3 x i8]* @.str, i64 0, i64 0), i32* nonnull %2)
  %8 = getelementptr inbounds [100000 x i32], [100000 x i32]* %1, i64 0, i64 0
  %9 = load i32, i32* %2, align 4, !tbaa !5
  %10 = icmp sgt i32 %9, 0
  br i1 %10, label %11, label %19

11:                                               ; preds = %0, %11
  %12 = phi i32* [ %14, %11 ], [ %8, %0 ]
  %13 = call i32 (i8*, ...) @__isoc99_scanf(i8* getelementptr inbounds ([3 x i8], [3 x i8]* @.str, i64 0, i64 0), i32* nonnull %12)
  %14 = getelementptr inbounds i32, i32* %12, i64 1
  %15 = load i32, i32* %2, align 4, !tbaa !5
  %16 = sext i32 %15 to i64
  %17 = getelementptr inbounds [100000 x i32], [100000 x i32]* %1, i64 0, i64 %16
  %18 = icmp ult i32* %14, %17
  br i1 %18, label %11, label %19, !llvm.loop !9

19:                                               ; preds = %11, %0
  %20 = call i32 @putchar(i32 10)
  %21 = call i32 (i8*, ...) @__isoc99_scanf(i8* getelementptr inbounds ([3 x i8], [3 x i8]* @.str, i64 0, i64 0), i32* nonnull %3)
  %22 = load i32, i32* %2, align 4, !tbaa !5
  %23 = icmp sgt i32 %22, 0
  br i1 %23, label %26, label %24

24:                                               ; preds = %19
  %25 = getelementptr inbounds [100000 x i32], [100000 x i32]* %1, i64 0, i64 -1
  br label %52

26:                                               ; preds = %19
  %27 = load i32, i32* %3, align 4, !tbaa !5
  %28 = sext i32 %22 to i64
  %29 = getelementptr inbounds [100000 x i32], [100000 x i32]* %1, i64 0, i64 %28
  br label %34

30:                                               ; preds = %42
  %31 = add nsw i64 %43, -1
  %32 = getelementptr inbounds [100000 x i32], [100000 x i32]* %1, i64 0, i64 %31
  %33 = icmp sgt i64 %43, 1
  br i1 %33, label %46, label %52

34:                                               ; preds = %26, %42
  %35 = phi i64 [ %43, %42 ], [ 0, %26 ]
  %36 = phi i32* [ %44, %42 ], [ %8, %26 ]
  %37 = load i32, i32* %36, align 4, !tbaa !5
  %38 = icmp eq i32 %37, %27
  br i1 %38, label %42, label %39

39:                                               ; preds = %34
  %40 = getelementptr inbounds [100000 x i32], [100000 x i32]* %1, i64 0, i64 %35
  store i32 %37, i32* %40, align 4, !tbaa !5
  %41 = add nsw i64 %35, 1
  br label %42

42:                                               ; preds = %34, %39
  %43 = phi i64 [ %41, %39 ], [ %35, %34 ]
  %44 = getelementptr inbounds i32, i32* %36, i64 1
  %45 = icmp ult i32* %44, %29
  br i1 %45, label %34, label %30, !llvm.loop !11

46:                                               ; preds = %30, %46
  %47 = phi i32* [ %50, %46 ], [ %8, %30 ]
  %48 = load i32, i32* %47, align 4, !tbaa !5
  %49 = call i32 (i8*, ...) @printf(i8* nonnull dereferenceable(1) getelementptr inbounds ([4 x i8], [4 x i8]* @.str.2, i64 0, i64 0), i32 %48)
  %50 = getelementptr inbounds i32, i32* %47, i64 1
  %51 = icmp ult i32* %50, %32
  br i1 %51, label %46, label %52, !llvm.loop !12

52:                                               ; preds = %46, %24, %30
  %53 = phi i32* [ %25, %24 ], [ %32, %30 ], [ %32, %46 ]
  %54 = load i32, i32* %53, align 4, !tbaa !5
  %55 = call i32 (i8*, ...) @printf(i8* nonnull dereferenceable(1) getelementptr inbounds ([3 x i8], [3 x i8]* @.str, i64 0, i64 0), i32 %54)
  %56 = call i32 @putchar(i32 10)
  call void @llvm.lifetime.end.p0i8(i64 4, i8* nonnull %6) #4
  call void @llvm.lifetime.end.p0i8(i64 4, i8* nonnull %5) #4
  call void @llvm.lifetime.end.p0i8(i64 400000, i8* nonnull %4) #4
  ret void
}

; Function Attrs: argmemonly mustprogress nofree nosync nounwind willreturn
declare void @llvm.lifetime.start.p0i8(i64 immarg, i8* nocapture) #1

; Function Attrs: nofree nounwind
declare noundef i32 @__isoc99_scanf(i8* nocapture noundef readonly, ...) local_unnamed_addr #2

; Function Attrs: nofree nounwind
declare noundef i32 @printf(i8* nocapture noundef readonly, ...) local_unnamed_addr #2

; Function Attrs: argmemonly mustprogress nofree nosync nounwind willreturn
declare void @llvm.lifetime.end.p0i8(i64 immarg, i8* nocapture) #1

; Function Attrs: nofree nounwind
declare noundef i32 @putchar(i32 noundef) local_unnamed_addr #3


!llvm.module.flags = !{!0, !1, !2, !3}
!llvm.ident = !{!4}

!0 = !{i32 1, !"wchar_size", i32 4}
!1 = !{i32 7, !"PIC Level", i32 2}
!2 = !{i32 7, !"PIE Level", i32 2}
!3 = !{i32 7, !"uwtable", i32 1}
!4 = !{!"clang version 13.0.0"}
!5 = !{!6, !6, i64 0}
!6 = !{!"int", !7, i64 0}
!7 = !{!"omnipotent char", !8, i64 0}
!8 = !{!"Simple C/C++ TBAA"}
!9 = distinct !{!9, !10}
!10 = !{!"llvm.loop.mustprogress"}
!11 = distinct !{!11, !10}
!12 = distinct !{!12, !10}
